(dp0
S'font disabled'
p1
csip
_unpickle_type
p2
(S'PyQt4.QtGui'
p3
S'QColor'
p4
(I102
I60
I35
I255
tp5
tp6
Rp7
sS'button'
p8
g2
(g3
S'QColor'
p9
(I149
I96
I56
I255
tp10
tp11
Rp12
sS'font'
p13
g2
(g3
S'QColor'
p14
(I50
I29
I17
I255
tp15
tp16
Rp17
sS'button highlight'
p18
g2
(g3
S'QColor'
p19
(I124
I73
I43
I255
tp20
tp21
Rp22
s.